target datalayout = "e-m:e-p270:32:32-p271:32:32-p272:64:64-i64:64-i128:128-f80:128-n8:16:32:64-S128"
target triple = "x86_64-pc-linux-gnu"

%"class.cv::bgsegm::BackgroundSubtractorCNTImpl" = type { %"class.cv::bgsegm::BackgroundSubtractorCNT", i32, i32, i32, i8, i8, %"class.cv::Mat_", %"class.cv::Mat", %"class.cv::Mat" }
%"class.cv::bgsegm::BackgroundSubtractorCNT" = type { %"class.cv::BackgroundSubtractor" }
%"class.cv::BackgroundSubtractor" = type { %"class.cv::Algorithm" }
%"class.cv::Algorithm" = type { ptr }
%"class.cv::Mat_" = type { %"class.cv::Mat" }
%"class.cv::Mat" = type { i32, i32, i32, i32, ptr, ptr, ptr, ptr, ptr, ptr, %"struct.cv::MatSize", %"struct.cv::MatStep" }
%"struct.cv::MatSize" = type { ptr }
%"struct.cv::MatStep" = type { ptr, [2 x i64] }

; Function Attrs: inlinehint mustprogress uwtable
define linkonce_odr hidden void @_ZN2cv20BackgroundSubtractorC2Ev(ptr noundef nonnull align 8 dereferenceable(8) %0) unnamed_addr #1 comdat align 2 {
  %2 = alloca ptr, align 8
  store ptr %0, ptr %2, align 8, !tbaa !121
  %3 = load ptr, ptr %2, align 8
  call void @_ZN2cv9AlgorithmC2Ev(ptr noundef nonnull align 8 dereferenceable(8) %3)
  store ptr getelementptr inbounds inrange(-16, 80) ({ [12 x ptr] }, ptr @_ZTVN2cv20BackgroundSubtractorE, i32 0, i32 0, i32 2), ptr %3, align 8, !tbaa !12
  ret void
}

; Function Attrs: inlinehint mustprogress nounwind uwtable
define linkonce_odr hidden void @_ZN2cv4Mat_INS_3VecIiLi4EEEEC2Ev(ptr noundef nonnull align 8 dereferenceable(96) %0) unnamed_addr #2 comdat align 2 {
  %2 = alloca ptr, align 8
  store ptr %0, ptr %2, align 8, !tbaa !36
  %3 = load ptr, ptr %2, align 8
  call void @_ZN2cv3MatC2Ev(ptr noundef nonnull align 8 dereferenceable(96) %3) #18
  %4 = getelementptr inbounds nuw %"class.cv::Mat", ptr %3, i32 0, i32 0
  %5 = load i32, ptr %4, align 8, !tbaa !38
  %6 = and i32 %5, -4096
  %7 = add nsw i32 %6, 28
  %8 = getelementptr inbounds nuw %"class.cv::Mat", ptr %3, i32 0, i32 0
  store i32 %7, ptr %8, align 8, !tbaa !38
  ret void
}

; Function Attrs: inlinehint mustprogress uwtable
define linkonce_odr hidden void @_ZN2cv6bgsegm23BackgroundSubtractorCNTC2Ev(ptr noundef nonnull align 8 dereferenceable(8) %0) unnamed_addr #1 comdat align 2 {
  %2 = alloca ptr, align 8
  store ptr %0, ptr %2, align 8, !tbaa !34
  %3 = load ptr, ptr %2, align 8
  call void @_ZN2cv20BackgroundSubtractorC2Ev(ptr noundef nonnull align 8 dereferenceable(8) %3)
  store ptr getelementptr inbounds inrange(-16, 144) ({ [20 x ptr] }, ptr @_ZTVN2cv6bgsegm23BackgroundSubtractorCNTE, i32 0, i32 0, i32 2), ptr %3, align 8, !tbaa !12
  ret void
}

; Function Attrs: mustprogress uwtable
define hidden void @_ZN2cv6bgsegm27BackgroundSubtractorCNTImplC2Eibib(ptr noundef nonnull align 8 dereferenceable(312) %0, i32 noundef %1, i1 noundef zeroext %2, i32 noundef %3, i1 noundef zeroext %4) unnamed_addr #0 align 2 {
  %6 = alloca ptr, align 8
  %7 = alloca i32, align 4
  %8 = alloca i8, align 1
  %9 = alloca i32, align 4
  %10 = alloca i8, align 1
  store ptr %0, ptr %6, align 8, !tbaa !3
  store i32 %1, ptr %7, align 4, !tbaa !8
  %11 = zext i1 %2 to i8
  store i8 %11, ptr %8, align 1, !tbaa !10
  store i32 %3, ptr %9, align 4, !tbaa !8
  %12 = zext i1 %4 to i8
  store i8 %12, ptr %10, align 1, !tbaa !10
  %13 = load ptr, ptr %6, align 8
  call void @_ZN2cv6bgsegm23BackgroundSubtractorCNTC2Ev(ptr noundef nonnull align 8 dereferenceable(8) %13)
  store ptr getelementptr inbounds inrange(-16, 144) ({ [20 x ptr] }, ptr @_ZTVN2cv6bgsegm27BackgroundSubtractorCNTImplE, i32 0, i32 0, i32 2), ptr %13, align 8, !tbaa !12
  %14 = getelementptr inbounds nuw %"class.cv::bgsegm::BackgroundSubtractorCNTImpl", ptr %13, i32 0, i32 1
  %15 = load i32, ptr %7, align 4, !tbaa !8
  store i32 %15, ptr %14, align 8, !tbaa !14
  %16 = getelementptr inbounds nuw %"class.cv::bgsegm::BackgroundSubtractorCNTImpl", ptr %13, i32 0, i32 2
  %17 = load i32, ptr %9, align 4, !tbaa !8
  store i32 %17, ptr %16, align 4, !tbaa !28
  %18 = getelementptr inbounds nuw %"class.cv::bgsegm::BackgroundSubtractorCNTImpl", ptr %13, i32 0, i32 3
  store i32 5, ptr %18, align 8, !tbaa !29
  %19 = getelementptr inbounds nuw %"class.cv::bgsegm::BackgroundSubtractorCNTImpl", ptr %13, i32 0, i32 4
  %20 = load i8, ptr %8, align 1, !tbaa !10, !range !30, !noundef !31
  %21 = trunc i8 %20 to i1
  %22 = zext i1 %21 to i8
  store i8 %22, ptr %19, align 4, !tbaa !32
  %23 = getelementptr inbounds nuw %"class.cv::bgsegm::BackgroundSubtractorCNTImpl", ptr %13, i32 0, i32 5
  %24 = load i8, ptr %10, align 1, !tbaa !10, !range !30, !noundef !31
  %25 = trunc i8 %24 to i1
  %26 = zext i1 %25 to i8
  store i8 %26, ptr %23, align 1, !tbaa !33
  %27 = getelementptr inbounds nuw %"class.cv::bgsegm::BackgroundSubtractorCNTImpl", ptr %13, i32 0, i32 6
  call void @_ZN2cv4Mat_INS_3VecIiLi4EEEEC2Ev(ptr noundef nonnull align 8 dereferenceable(96) %27) #18
  %28 = getelementptr inbounds nuw %"class.cv::bgsegm::BackgroundSubtractorCNTImpl", ptr %13, i32 0, i32 7
  call void @_ZN2cv3MatC1Ev(ptr noundef nonnull align 8 dereferenceable(96) %28) #18
  %29 = getelementptr inbounds nuw %"class.cv::bgsegm::BackgroundSubtractorCNTImpl", ptr %13, i32 0, i32 8
  call void @_ZN2cv3MatC1Ev(ptr noundef nonnull align 8 dereferenceable(96) %29) #18
  ret void
}