; Function Attrs: mustprogress uwtable
define hidden void @_ZN2cv6bgsegm27BackgroundSubtractorCNTImplC2Eibib(ptr noundef nonnull align 8 dereferenceable(312) %0, i32 noundef %1, i1 noundef zeroext %2, i32 noundef %3, i1 noundef zeroext %4) unnamed_addr #0 align 2 {
  %6 = zext i1 %2 to i8
  %7 = zext i1 %4 to i8
  tail call void @_ZN2cv9AlgorithmC2Ev(ptr noundef nonnull align 8 dereferenceable(8) %0)
  store ptr getelementptr inbounds nuw inrange(-16, 144) (i8, ptr @_ZTVN2cv6bgsegm27BackgroundSubtractorCNTImplE, i64 16), ptr %0, align 8, !tbaa !3
  %8 = getelementptr inbounds nuw i8, ptr %0, i64 8
  store i32 %1, ptr %8, align 8, !tbaa !6
  %9 = getelementptr inbounds nuw i8, ptr %0, i64 12
  store i32 %3, ptr %9, align 4, !tbaa !24
  %10 = getelementptr inbounds nuw i8, ptr %0, i64 16
  store i32 5, ptr %10, align 8, !tbaa !25
  %11 = getelementptr inbounds nuw i8, ptr %0, i64 20
  store i8 %6, ptr %11, align 4, !tbaa !26
  %12 = getelementptr inbounds nuw i8, ptr %0, i64 21
  store i8 %7, ptr %12, align 1, !tbaa !27
  %13 = getelementptr inbounds nuw i8, ptr %0, i64 24
  tail call void @_ZN2cv3MatC2Ev(ptr noundef nonnull align 8 dereferenceable(96) %13) #15
  %14 = load i32, ptr %13, align 8, !tbaa !28
  %15 = and i32 %14, -4096
  %16 = or disjoint i32 %15, 28
  store i32 %16, ptr %13, align 8, !tbaa !28
  %17 = getelementptr inbounds nuw i8, ptr %0, i64 120
  tail call void @_ZN2cv3MatC1Ev(ptr noundef nonnull align 8 dereferenceable(96) %17) #15
  %18 = getelementptr inbounds nuw i8, ptr %0, i64 216
  tail call void @_ZN2cv3MatC1Ev(ptr noundef nonnull align 8 dereferenceable(96) %18) #15
  ret void
}